; Function Attrs: mustprogress uwtable
define noundef zeroext i1 @_ZNK32pxrInternal_v0_24__pxrReserved__22UsdImagingFieldAdapter11IsSupportedEPKNS_20UsdImagingIndexProxyE(ptr noundef nonnull align 8 dereferenceable(32) %0, ptr noundef %1) unnamed_addr #0 align 2 personality ptr @__gxx_personality_v0 {
  %3 = alloca %"class.pxrInternal_v0_24__pxrReserved__::TfToken", align 8
  %4 = load ptr, ptr %0, align 8
  %5 = getelementptr inbounds i8, ptr %4, i64 536
  %6 = load ptr, ptr %5, align 8
  call void %6(ptr dead_on_unwind nonnull writable sret(%"class.pxrInternal_v0_24__pxrReserved__::TfToken") align 8 %3, ptr noundef nonnull align 8 dereferenceable(32) %0)
  %7 = invoke noundef zeroext i1 @_ZNK32pxrInternal_v0_24__pxrReserved__20UsdImagingIndexProxy20IsBprimTypeSupportedERKNS_7TfTokenE(ptr noundef nonnull align 8 dereferenceable(184) %1, ptr noundef nonnull align 8 dereferenceable(8) %3)
          to label %8 unwind label %16

8:                                                ; preds = %2
  %9 = load ptr, ptr %3, align 8
  %10 = ptrtoint ptr %9 to i64
  %11 = and i64 %10, 7
  %.not.i.i = icmp eq i64 %11, 0
  br i1 %.not.i.i, label %_ZN32pxrInternal_v0_24__pxrReserved__7TfTokenD2Ev.exit, label %12

12:                                               ; preds = %8
  %13 = and i64 %10, -8
  %14 = inttoptr i64 %13 to ptr
  %15 = atomicrmw sub ptr %14, i32 2 release, align 4
  br label %_ZN32pxrInternal_v0_24__pxrReserved__7TfTokenD2Ev.exit

_ZN32pxrInternal_v0_24__pxrReserved__7TfTokenD2Ev.exit: ; preds = %8, %12
  ret i1 %7

16:                                               ; preds = %2
  %17 = landingpad { ptr, i32 }
          cleanup
  %18 = load ptr, ptr %3, align 8
  %19 = ptrtoint ptr %18 to i64
  %20 = and i64 %19, 7
  %.not.i.i3 = icmp eq i64 %20, 0
  br i1 %.not.i.i3, label %_ZN32pxrInternal_v0_24__pxrReserved__7TfTokenD2Ev.exit4, label %21

21:                                               ; preds = %16
  %22 = and i64 %19, -8
  %23 = inttoptr i64 %22 to ptr
  %24 = atomicrmw sub ptr %23, i32 2 release, align 4
  br label %_ZN32pxrInternal_v0_24__pxrReserved__7TfTokenD2Ev.exit4

_ZN32pxrInternal_v0_24__pxrReserved__7TfTokenD2Ev.exit4: ; preds = %16, %21
  resume { ptr, i32 } %17
}